; Function Attrs: mustprogress uwtable
define noundef i32 @_ZN6icu_7735SimpleFilteredSentenceBreakIterator12internalPrevEi(ptr noundef nonnull align 8 captures(none) dereferenceable(56) %0, i32 noundef %1) local_unnamed_addr #2 align 2 {
  %3 = alloca i32, align 4
  %4 = add i32 %1, 1
  %or.cond = icmp ult i32 %4, 2
  br i1 %or.cond, label %33, label %5

5:                                                ; preds = %2
  %6 = getelementptr inbounds nuw i8, ptr %0, i64 32
  %7 = load ptr, ptr %6, align 8, !tbaa !11
  %8 = getelementptr inbounds nuw i8, ptr %7, i64 16
  %9 = load ptr, ptr %8, align 8, !tbaa !6
  %.not19 = icmp eq ptr %9, null
  br i1 %.not19, label %33, label %10

10:                                               ; preds = %5
  call void @llvm.lifetime.start.p0(i64 4, ptr nonnull %3) #14
  store i32 0, ptr %3, align 4, !tbaa !28
  %11 = getelementptr inbounds nuw i8, ptr %0, i64 48
  %12 = getelementptr inbounds nuw i8, ptr %0, i64 40
  %13 = load ptr, ptr %12, align 8, !tbaa !23
  %14 = load ptr, ptr %11, align 8, !tbaa !24
  store ptr null, ptr %11, align 8, !tbaa !24
  %15 = load ptr, ptr %13, align 8, !tbaa !3
  %16 = getelementptr inbounds nuw i8, ptr %15, i64 48
  %17 = load ptr, ptr %16, align 8
  %18 = call noundef ptr %17(ptr noundef nonnull align 8 dereferenceable(32) %13, ptr noundef %14, ptr noundef nonnull align 4 dereferenceable(4) %3)
  %19 = load ptr, ptr %11, align 8, !tbaa !24
  %.not.i.i = icmp eq ptr %19, null
  br i1 %.not.i.i, label %_ZN6icu_7735SimpleFilteredSentenceBreakIterator10resetStateER10UErrorCode.exit, label %20

20:                                               ; preds = %10
  %21 = call noundef ptr @utext_close_77(ptr noundef nonnull %19)
  br label %_ZN6icu_7735SimpleFilteredSentenceBreakIterator10resetStateER10UErrorCode.exit

_ZN6icu_7735SimpleFilteredSentenceBreakIterator10resetStateER10UErrorCode.exit: ; preds = %10, %20
  store ptr %18, ptr %11, align 8, !tbaa !24
  %22 = load i32, ptr %3, align 4, !tbaa !28
  %23 = icmp slt i32 %22, 1
  br i1 %23, label %.lr.ph, label %.thread

.lr.ph:                                           ; preds = %_ZN6icu_7735SimpleFilteredSentenceBreakIterator10resetStateER10UErrorCode.exit, %25
  %.01420 = phi i32 [ %30, %25 ], [ %1, %_ZN6icu_7735SimpleFilteredSentenceBreakIterator10resetStateER10UErrorCode.exit ]
  %24 = call noundef i32 @_ZN6icu_7735SimpleFilteredSentenceBreakIterator16breakExceptionAtEi(ptr noundef nonnull align 8 dereferenceable(56) %0, i32 noundef %.01420)
  %cond2.not.not = icmp eq i32 %24, 0
  br i1 %cond2.not.not, label %.thread, label %25

25:                                               ; preds = %.lr.ph
  %26 = load ptr, ptr %12, align 8, !tbaa !23
  %27 = load ptr, ptr %26, align 8, !tbaa !3
  %28 = getelementptr inbounds nuw i8, ptr %27, i64 96
  %29 = load ptr, ptr %28, align 8
  %30 = call noundef i32 %29(ptr noundef nonnull align 8 dereferenceable(32) %26)
  %31 = add i32 %30, -1
  %32 = icmp ult i32 %31, -2
  br i1 %32, label %.lr.ph, label %.thread

.thread:                                          ; preds = %25, %.lr.ph, %_ZN6icu_7735SimpleFilteredSentenceBreakIterator10resetStateER10UErrorCode.exit
  %.1 = phi i32 [ -1, %_ZN6icu_7735SimpleFilteredSentenceBreakIterator10resetStateER10UErrorCode.exit ], [ %30, %25 ], [ %.01420, %.lr.ph ]
  call void @llvm.lifetime.end.p0(i64 4, ptr nonnull %3) #14
  br label %33

33:                                               ; preds = %2, %5, %.thread
  %.0 = phi i32 [ %.1, %.thread ], [ %1, %5 ], [ %1, %2 ]
  ret i32 %.0
}